; Function Attrs: mustprogress uwtable
define noundef ptr @_Z11ftp2fn_nulliiPK8t_filenm(i32 noundef %0, i32 noundef %1, ptr nocapture noundef readonly %2) local_unnamed_addr #0 {
  %4 = icmp sgt i32 %1, 0
  br i1 %4, label %.lr.ph.preheader, label %._crit_edge

.lr.ph.preheader:                                 ; preds = %3
  %wide.trip.count = zext nneg i32 %1 to i64
  br label %.lr.ph

5:                                                ; preds = %.lr.ph
  %indvars.iv.next = add nuw nsw i64 %indvars.iv, 1
  %exitcond.not = icmp eq i64 %indvars.iv.next, %wide.trip.count
  br i1 %exitcond.not, label %._crit_edge, label %.lr.ph, !llvm.loop !10

.lr.ph:                                           ; preds = %.lr.ph.preheader, %5
  %indvars.iv = phi i64 [ 0, %.lr.ph.preheader ], [ %indvars.iv.next, %5 ]
  %6 = getelementptr inbounds %struct.t_filenm, ptr %2, i64 %indvars.iv
  %7 = load i32, ptr %6, align 8
  %8 = icmp eq i32 %7, %0
  br i1 %8, label %9, label %5

9:                                                ; preds = %.lr.ph
  %10 = getelementptr i8, ptr %6, i64 24
  %.val13 = load i64, ptr %10, align 8
  %11 = and i64 %.val13, 9
  %or.cond.not = icmp eq i64 %11, 8
  br i1 %or.cond.not, label %16, label %12

12:                                               ; preds = %9
  %13 = getelementptr inbounds i8, ptr %6, i64 32
  %14 = load ptr, ptr %13, align 8
  %15 = tail call noundef ptr @_ZNKSt7__cxx1112basic_stringIcSt11char_traitsIcESaIcEE5c_strEv(ptr noundef nonnull align 8 dereferenceable(32) %14) #13
  br label %16

._crit_edge:                                      ; preds = %5, %3
  tail call void @_ZN3gmx8internal13assertHandlerEPKcS2_S2_S2_i(ptr noundef nonnull @.str.3, ptr noundef nonnull @.str.11, ptr noundef nonnull @"__PRETTY_FUNCTION__._ZZ11ftp2fn_nulliiPK8t_filenmENK3$_0clEv", ptr noundef nonnull @.str.2, i32 noundef 223) #11
  unreachable

16:                                               ; preds = %9, %12
  %.012 = phi ptr [ %15, %12 ], [ null, %9 ]
  ret ptr %.012
}